target datalayout = "e-m:e-p270:32:32-p271:32:32-p272:64:64-i64:64-i128:128-f80:128-n8:16:32:64-S128"
target triple = "x86_64-pc-linux-gnu"

%struct.AfterTriggersData = type { i32, ptr, %struct.AfterTriggerEventList, ptr, ptr, i32, i32, ptr, i32 }
%struct.AfterTriggerEventList = type { ptr, ptr, ptr }
%struct.ForEachState = type { ptr, i32 }
%struct.List = type { i32, i32, i32, ptr, [0 x %union.ListCell] }
%union.ListCell = type { ptr }
%struct.AfterTriggersTableData = type { i32, i32, i8, i8, i8, %struct.AfterTriggerEventList, ptr, ptr, ptr, ptr, ptr }
%struct.AfterTriggersQueryData = type { %struct.AfterTriggerEventList, ptr, ptr }
%struct.AfterTriggerEventChunk = type { ptr, ptr, ptr, ptr }

@afterTriggers = internal global %struct.AfterTriggersData zeroinitializer, align 8

; Function Attrs: nounwind uwtable
define internal void @afterTriggerDeleteHeadEventChunk(ptr noundef %0) #0 {
  %2 = alloca ptr, align 8
  %3 = alloca ptr, align 8
  %4 = alloca ptr, align 8
  %5 = alloca %struct.ForEachState, align 8
  %6 = alloca ptr, align 8
  store ptr %0, ptr %2, align 8
  call void @llvm.lifetime.start.p0(i64 8, ptr %3) #12
  %7 = load ptr, ptr %2, align 8
  %8 = getelementptr inbounds nuw %struct.AfterTriggersQueryData, ptr %7, i32 0, i32 0
  %9 = getelementptr inbounds nuw %struct.AfterTriggerEventList, ptr %8, i32 0, i32 0
  %10 = load ptr, ptr %9, align 8
  store ptr %10, ptr %3, align 8
  call void @llvm.lifetime.start.p0(i64 8, ptr %4) #12
  call void @llvm.lifetime.start.p0(i64 16, ptr %5) #12
  %11 = getelementptr inbounds nuw %struct.ForEachState, ptr %5, i32 0, i32 0
  %12 = load ptr, ptr %2, align 8
  %13 = getelementptr inbounds nuw %struct.AfterTriggersQueryData, ptr %12, i32 0, i32 2
  %14 = load ptr, ptr %13, align 8
  store ptr %14, ptr %11, align 8
  %15 = getelementptr inbounds nuw %struct.ForEachState, ptr %5, i32 0, i32 1
  store i32 0, ptr %15, align 8
  %16 = getelementptr i8, ptr %5, i64 12
  call void @llvm.memset.p0.i64(ptr align 4 %16, i8 0, i64 4, i1 false)
  br label %17

17:                                               ; preds = %68, %1
  %18 = getelementptr inbounds nuw %struct.ForEachState, ptr %5, i32 0, i32 0
  %19 = load ptr, ptr %18, align 8
  %20 = icmp ne ptr %19, null
  br i1 %20, label %21, label %38

21:                                               ; preds = %17
  %22 = getelementptr inbounds nuw %struct.ForEachState, ptr %5, i32 0, i32 1
  %23 = load i32, ptr %22, align 8
  %24 = getelementptr inbounds nuw %struct.ForEachState, ptr %5, i32 0, i32 0
  %25 = load ptr, ptr %24, align 8
  %26 = getelementptr inbounds nuw %struct.List, ptr %25, i32 0, i32 1
  %27 = load i32, ptr %26, align 4
  %28 = icmp slt i32 %23, %27
  br i1 %28, label %29, label %38

29:                                               ; preds = %21
  %30 = getelementptr inbounds nuw %struct.ForEachState, ptr %5, i32 0, i32 0
  %31 = load ptr, ptr %30, align 8
  %32 = getelementptr inbounds nuw %struct.List, ptr %31, i32 0, i32 3
  %33 = load ptr, ptr %32, align 8
  %34 = getelementptr inbounds nuw %struct.ForEachState, ptr %5, i32 0, i32 1
  %35 = load i32, ptr %34, align 8
  %36 = sext i32 %35 to i64
  %37 = getelementptr inbounds %union.ListCell, ptr %33, i64 %36
  store ptr %37, ptr %4, align 8
  br label %39

38:                                               ; preds = %21, %17
  store ptr null, ptr %4, align 8
  br label %39

39:                                               ; preds = %38, %29
  %40 = phi i32 [ 1, %29 ], [ 0, %38 ]
  %41 = icmp ne i32 %40, 0
  br i1 %41, label %43, label %42

42:                                               ; preds = %39
  call void @llvm.lifetime.end.p0(i64 16, ptr %5) #12
  br label %72

43:                                               ; preds = %39
  call void @llvm.lifetime.start.p0(i64 8, ptr %6) #12
  %44 = load ptr, ptr %4, align 8
  %45 = load ptr, ptr %44, align 8
  store ptr %45, ptr %6, align 8
  %46 = load ptr, ptr %6, align 8
  %47 = getelementptr inbounds nuw %struct.AfterTriggersTableData, ptr %46, i32 0, i32 4
  %48 = load i8, ptr %47, align 2, !range !4, !noundef !5
  %49 = trunc i8 %48 to i1
  br i1 %49, label %50, label %67

50:                                               ; preds = %43
  %51 = load ptr, ptr %6, align 8
  %52 = getelementptr inbounds nuw %struct.AfterTriggersTableData, ptr %51, i32 0, i32 5
  %53 = getelementptr inbounds nuw %struct.AfterTriggerEventList, ptr %52, i32 0, i32 1
  %54 = load ptr, ptr %53, align 8
  %55 = load ptr, ptr %3, align 8
  %56 = icmp eq ptr %54, %55
  br i1 %56, label %57, label %67

57:                                               ; preds = %50
  %58 = load ptr, ptr %6, align 8
  %59 = getelementptr inbounds nuw %struct.AfterTriggersTableData, ptr %58, i32 0, i32 5
  %60 = getelementptr inbounds nuw %struct.AfterTriggerEventList, ptr %59, i32 0, i32 0
  store ptr null, ptr %60, align 8
  %61 = load ptr, ptr %6, align 8
  %62 = getelementptr inbounds nuw %struct.AfterTriggersTableData, ptr %61, i32 0, i32 5
  %63 = getelementptr inbounds nuw %struct.AfterTriggerEventList, ptr %62, i32 0, i32 1
  store ptr null, ptr %63, align 8
  %64 = load ptr, ptr %6, align 8
  %65 = getelementptr inbounds nuw %struct.AfterTriggersTableData, ptr %64, i32 0, i32 5
  %66 = getelementptr inbounds nuw %struct.AfterTriggerEventList, ptr %65, i32 0, i32 2
  store ptr null, ptr %66, align 8
  br label %67

67:                                               ; preds = %57, %50, %43
  call void @llvm.lifetime.end.p0(i64 8, ptr %6) #12
  br label %68

68:                                               ; preds = %67
  %69 = getelementptr inbounds nuw %struct.ForEachState, ptr %5, i32 0, i32 1
  %70 = load i32, ptr %69, align 8
  %71 = add i32 %70, 1
  store i32 %71, ptr %69, align 8
  br label %17, !llvm.loop !50

72:                                               ; preds = %42
  %73 = load ptr, ptr %3, align 8
  %74 = getelementptr inbounds nuw %struct.AfterTriggerEventChunk, ptr %73, i32 0, i32 0
  %75 = load ptr, ptr %74, align 8
  %76 = load ptr, ptr %2, align 8
  %77 = getelementptr inbounds nuw %struct.AfterTriggersQueryData, ptr %76, i32 0, i32 0
  %78 = getelementptr inbounds nuw %struct.AfterTriggerEventList, ptr %77, i32 0, i32 0
  store ptr %75, ptr %78, align 8
  %79 = load ptr, ptr %3, align 8
  call void @pfree(ptr noundef %79)
  call void @llvm.lifetime.end.p0(i64 8, ptr %4) #12
  call void @llvm.lifetime.end.p0(i64 8, ptr %3) #12
  ret void
}

; Function Attrs: nounwind uwtable
define dso_local void @AfterTriggerEndQuery(ptr noundef %0) #0 {
  %2 = alloca ptr, align 8
  %3 = alloca ptr, align 8
  %4 = alloca i32, align 4
  %5 = alloca i32, align 4
  %6 = alloca ptr, align 8
  store ptr %0, ptr %2, align 8
  call void @llvm.lifetime.start.p0(i64 8, ptr %3) #12
  %7 = load i32, ptr getelementptr inbounds nuw (%struct.AfterTriggersData, ptr @afterTriggers, i32 0, i32 5), align 8
  %8 = load i32, ptr getelementptr inbounds nuw (%struct.AfterTriggersData, ptr @afterTriggers, i32 0, i32 6), align 4
  %9 = icmp sge i32 %7, %8
  br i1 %9, label %10, label %13

10:                                               ; preds = %1
  %11 = load i32, ptr getelementptr inbounds nuw (%struct.AfterTriggersData, ptr @afterTriggers, i32 0, i32 5), align 8
  %12 = add i32 %11, -1
  store i32 %12, ptr getelementptr inbounds nuw (%struct.AfterTriggersData, ptr @afterTriggers, i32 0, i32 5), align 8
  store i32 1, ptr %4, align 4
  br label %62

13:                                               ; preds = %1
  %14 = load ptr, ptr getelementptr inbounds nuw (%struct.AfterTriggersData, ptr @afterTriggers, i32 0, i32 4), align 8
  %15 = load i32, ptr getelementptr inbounds nuw (%struct.AfterTriggersData, ptr @afterTriggers, i32 0, i32 5), align 8
  %16 = sext i32 %15 to i64
  %17 = getelementptr inbounds %struct.AfterTriggersQueryData, ptr %14, i64 %16
  store ptr %17, ptr %3, align 8
  br label %18

18:                                               ; preds = %54, %13
  %19 = load ptr, ptr %3, align 8
  %20 = getelementptr inbounds nuw %struct.AfterTriggersQueryData, ptr %19, i32 0, i32 0
  %21 = call zeroext i1 @afterTriggerMarkEvents(ptr noundef %20, ptr noundef getelementptr inbounds nuw (%struct.AfterTriggersData, ptr @afterTriggers, i32 0, i32 2), i1 noundef zeroext true)
  br i1 %21, label %22, label %53

22:                                               ; preds = %18
  call void @llvm.lifetime.start.p0(i64 4, ptr %5) #12
  %23 = load i32, ptr @afterTriggers, align 8
  %24 = add i32 %23, 1
  store i32 %24, ptr @afterTriggers, align 8
  store i32 %23, ptr %5, align 4
  call void @llvm.lifetime.start.p0(i64 8, ptr %6) #12
  %25 = load ptr, ptr %3, align 8
  %26 = getelementptr inbounds nuw %struct.AfterTriggersQueryData, ptr %25, i32 0, i32 0
  %27 = getelementptr inbounds nuw %struct.AfterTriggerEventList, ptr %26, i32 0, i32 1
  %28 = load ptr, ptr %27, align 8
  store ptr %28, ptr %6, align 8
  %29 = load ptr, ptr %3, align 8
  %30 = getelementptr inbounds nuw %struct.AfterTriggersQueryData, ptr %29, i32 0, i32 0
  %31 = load i32, ptr %5, align 4
  %32 = load ptr, ptr %2, align 8
  %33 = call zeroext i1 @afterTriggerInvokeEvents(ptr noundef %30, i32 noundef %31, ptr noundef %32, i1 noundef zeroext false)
  br i1 %33, label %34, label %35

34:                                               ; preds = %22
  store i32 2, ptr %4, align 4
  br label %50

35:                                               ; preds = %22
  %36 = load ptr, ptr getelementptr inbounds nuw (%struct.AfterTriggersData, ptr @afterTriggers, i32 0, i32 4), align 8
  %37 = load i32, ptr getelementptr inbounds nuw (%struct.AfterTriggersData, ptr @afterTriggers, i32 0, i32 5), align 8
  %38 = sext i32 %37 to i64
  %39 = getelementptr inbounds %struct.AfterTriggersQueryData, ptr %36, i64 %38
  store ptr %39, ptr %3, align 8
  br label %40

40:                                               ; preds = %47, %35
  %41 = load ptr, ptr %3, align 8
  %42 = getelementptr inbounds nuw %struct.AfterTriggersQueryData, ptr %41, i32 0, i32 0
  %43 = getelementptr inbounds nuw %struct.AfterTriggerEventList, ptr %42, i32 0, i32 0
  %44 = load ptr, ptr %43, align 8
  %45 = load ptr, ptr %6, align 8
  %46 = icmp ne ptr %44, %45
  br i1 %46, label %47, label %49

47:                                               ; preds = %40
  %48 = load ptr, ptr %3, align 8
  call void @afterTriggerDeleteHeadEventChunk(ptr noundef %48)
  br label %40, !llvm.loop !45

49:                                               ; preds = %40
  store i32 0, ptr %4, align 4
  br label %50

50:                                               ; preds = %49, %34
  call void @llvm.lifetime.end.p0(i64 8, ptr %6) #12
  call void @llvm.lifetime.end.p0(i64 4, ptr %5) #12
  %51 = load i32, ptr %4, align 4
  switch i32 %51, label %65 [
    i32 0, label %52
    i32 2, label %55
  ]

52:                                               ; preds = %50
  br label %54

53:                                               ; preds = %18
  br label %55

54:                                               ; preds = %52
  br label %18

55:                                               ; preds = %53, %50
  %56 = load ptr, ptr getelementptr inbounds nuw (%struct.AfterTriggersData, ptr @afterTriggers, i32 0, i32 4), align 8
  %57 = load i32, ptr getelementptr inbounds nuw (%struct.AfterTriggersData, ptr @afterTriggers, i32 0, i32 5), align 8
  %58 = sext i32 %57 to i64
  %59 = getelementptr inbounds %struct.AfterTriggersQueryData, ptr %56, i64 %58
  call void @AfterTriggerFreeQuery(ptr noundef %59)
  %60 = load i32, ptr getelementptr inbounds nuw (%struct.AfterTriggersData, ptr @afterTriggers, i32 0, i32 5), align 8
  %61 = add i32 %60, -1
  store i32 %61, ptr getelementptr inbounds nuw (%struct.AfterTriggersData, ptr @afterTriggers, i32 0, i32 5), align 8
  store i32 0, ptr %4, align 4
  br label %62

62:                                               ; preds = %55, %10
  call void @llvm.lifetime.end.p0(i64 8, ptr %3) #12
  %63 = load i32, ptr %4, align 4
  switch i32 %63, label %65 [
    i32 0, label %64
    i32 1, label %64
  ]

64:                                               ; preds = %62, %62
  ret void

65:                                               ; preds = %62, %50
  unreachable
}