; Function Attrs: nounwind uwtable
define dso_local void @AfterTriggerEndQuery(ptr noundef %0) local_unnamed_addr #0 {
  %2 = load i32, ptr getelementptr inbounds nuw (i8, ptr @afterTriggers, i64 56), align 8
  %3 = load i32, ptr getelementptr inbounds nuw (i8, ptr @afterTriggers, i64 60), align 4
  %.not = icmp slt i32 %2, %3
  br i1 %.not, label %4, label %53

4:                                                ; preds = %1
  %5 = load ptr, ptr getelementptr inbounds nuw (i8, ptr @afterTriggers, i64 48), align 8
  %6 = sext i32 %2 to i64
  %7 = getelementptr inbounds %struct.AfterTriggersQueryData, ptr %5, i64 %6
  %8 = tail call fastcc zeroext i1 @afterTriggerMarkEvents(ptr noundef %7, ptr noundef nonnull getelementptr inbounds nuw (i8, ptr @afterTriggers, i64 16), i1 noundef zeroext true)
  br i1 %8, label %.lr.ph17, label %.thread

.loopexit:                                        ; preds = %afterTriggerDeleteHeadEventChunk.exit, %15
  %9 = tail call fastcc zeroext i1 @afterTriggerMarkEvents(ptr noundef nonnull %19, ptr noundef nonnull getelementptr inbounds nuw (i8, ptr @afterTriggers, i64 16), i1 noundef zeroext true)
  br i1 %9, label %.lr.ph17, label %.thread

.lr.ph17:                                         ; preds = %4, %.loopexit
  %.016 = phi ptr [ %19, %.loopexit ], [ %7, %4 ]
  %10 = load i32, ptr @afterTriggers, align 8
  %11 = add i32 %10, 1
  store i32 %11, ptr @afterTriggers, align 8
  %12 = getelementptr inbounds nuw i8, ptr %.016, i64 8
  %13 = load ptr, ptr %12, align 8
  %14 = tail call fastcc zeroext i1 @afterTriggerInvokeEvents(ptr noundef %.016, i32 noundef %10, ptr noundef %0, i1 noundef zeroext false)
  br i1 %14, label %.thread, label %15

15:                                               ; preds = %.lr.ph17
  %16 = load ptr, ptr getelementptr inbounds nuw (i8, ptr @afterTriggers, i64 48), align 8
  %17 = load i32, ptr getelementptr inbounds nuw (i8, ptr @afterTriggers, i64 56), align 8
  %18 = sext i32 %17 to i64
  %19 = getelementptr inbounds %struct.AfterTriggersQueryData, ptr %16, i64 %18
  %20 = load ptr, ptr %19, align 8
  %.not1115 = icmp eq ptr %20, %13
  br i1 %.not1115, label %.loopexit, label %.lr.ph

.lr.ph:                                           ; preds = %15
  %21 = getelementptr inbounds nuw i8, ptr %19, i64 32
  br label %22

22:                                               ; preds = %.lr.ph, %afterTriggerDeleteHeadEventChunk.exit
  %23 = phi ptr [ %20, %.lr.ph ], [ %47, %afterTriggerDeleteHeadEventChunk.exit ]
  %24 = load ptr, ptr %21, align 8
  %25 = getelementptr inbounds nuw i8, ptr %24, i64 4
  %.not.i = icmp eq ptr %24, null
  br i1 %.not.i, label %afterTriggerDeleteHeadEventChunk.exit, label %.lr.ph.i

.lr.ph.i:                                         ; preds = %22
  %26 = getelementptr inbounds nuw i8, ptr %24, i64 16
  %27 = load i32, ptr %25, align 4
  %28 = icmp sgt i32 %27, 0
  br i1 %28, label %.lr.ph23.i, label %afterTriggerDeleteHeadEventChunk.exit

.lr.ph23.i:                                       ; preds = %.lr.ph.i, %42
  %29 = phi i32 [ %43, %42 ], [ %27, %.lr.ph.i ]
  %indvars.iv.i = phi i64 [ %indvars.iv.next.i, %42 ], [ 0, %.lr.ph.i ]
  %30 = load ptr, ptr %26, align 8
  %31 = getelementptr inbounds nuw %union.ListCell, ptr %30, i64 %indvars.iv.i
  %32 = load ptr, ptr %31, align 8
  %33 = getelementptr inbounds nuw i8, ptr %32, i64 10
  %34 = load i8, ptr %33, align 2, !range !4, !noundef !5
  %35 = trunc nuw i8 %34 to i1
  br i1 %35, label %36, label %42

36:                                               ; preds = %.lr.ph23.i
  %37 = getelementptr inbounds nuw i8, ptr %32, i64 24
  %38 = load ptr, ptr %37, align 8
  %39 = icmp eq ptr %38, %23
  br i1 %39, label %40, label %42

40:                                               ; preds = %36
  %41 = getelementptr inbounds nuw i8, ptr %32, i64 16
  tail call void @llvm.memset.p0.i64(ptr noundef nonnull align 8 dereferenceable(24) %41, i8 0, i64 24, i1 false)
  %.pre.i = load i32, ptr %25, align 4
  br label %42

42:                                               ; preds = %40, %36, %.lr.ph23.i
  %43 = phi i32 [ %.pre.i, %40 ], [ %29, %36 ], [ %29, %.lr.ph23.i ]
  %indvars.iv.next.i = add nuw nsw i64 %indvars.iv.i, 1
  %44 = sext i32 %43 to i64
  %45 = icmp slt i64 %indvars.iv.next.i, %44
  br i1 %45, label %.lr.ph23.i, label %afterTriggerDeleteHeadEventChunk.exit

afterTriggerDeleteHeadEventChunk.exit:            ; preds = %42, %22, %.lr.ph.i
  %46 = load ptr, ptr %23, align 8
  store ptr %46, ptr %19, align 8
  tail call void @pfree(ptr noundef nonnull %23) #16
  %47 = load ptr, ptr %19, align 8
  %.not11 = icmp eq ptr %47, %13
  br i1 %.not11, label %.loopexit, label %22, !llvm.loop !42

.thread:                                          ; preds = %.loopexit, %.lr.ph17, %4
  %48 = load ptr, ptr getelementptr inbounds nuw (i8, ptr @afterTriggers, i64 48), align 8
  %49 = load i32, ptr getelementptr inbounds nuw (i8, ptr @afterTriggers, i64 56), align 8
  %50 = sext i32 %49 to i64
  %51 = getelementptr inbounds %struct.AfterTriggersQueryData, ptr %48, i64 %50
  tail call fastcc void @AfterTriggerFreeQuery(ptr noundef %51)
  %52 = load i32, ptr getelementptr inbounds nuw (i8, ptr @afterTriggers, i64 56), align 8
  br label %53

53:                                               ; preds = %1, %.thread
  %storemerge.in = phi i32 [ %52, %.thread ], [ %2, %1 ]
  %storemerge = add i32 %storemerge.in, -1
  store i32 %storemerge, ptr getelementptr inbounds nuw (i8, ptr @afterTriggers, i64 56), align 8
  ret void
}